; Function Attrs: nounwind uwtable
define internal fastcc void @wtvfile_close(ptr noundef %0) unnamed_addr #1 {
  %2 = alloca ptr, align 8
  store ptr %0, ptr %2, align 8, !tbaa !33
  %3 = getelementptr inbounds nuw i8, ptr %0, i64 40
  %4 = load ptr, ptr %3, align 8, !tbaa !34
  %5 = getelementptr inbounds nuw i8, ptr %4, i64 16
  tail call void @av_freep(ptr noundef nonnull %5) #11
  tail call void @av_freep(ptr noundef nonnull %3) #11
  %6 = getelementptr inbounds nuw i8, ptr %0, i64 8
  tail call void @av_freep(ptr noundef nonnull %6) #11
  call void @avio_context_free(ptr noundef nonnull %2) #11
  ret void
}